; ModuleID = '16/709.c'
source_filename = "16/709.c"
target datalayout = "e-m:e-p270:32:32-p271:32:32-p272:64:64-i64:64-f80:128-n8:16:32:64-S128"
target triple = "x86_64-pc-linux-gnu"

@.str = private unnamed_addr constant [3 x i8] c"%d\00", align 1
@.str.1 = private unnamed_addr constant [10 x i8] c"%d%d%d%d\0A\00", align 1
@.str.2 = private unnamed_addr constant [8 x i8] c"%d%d%d\0A\00", align 1
@.str.3 = private unnamed_addr constant [6 x i8] c"%d%d\0A\00", align 1
@.str.4 = private unnamed_addr constant [4 x i8] c"%d\0A\00", align 1

; Function Attrs: noinline nounwind uwtable
define dso_local i32 @main() #0 {
  %1 = alloca i32, align 4
  %2 = alloca i32, align 4
  %3 = alloca i32, align 4
  %4 = alloca i32, align 4
  %5 = alloca i32, align 4
  %6 = alloca i32, align 4
  store i32 0, i32* %1, align 4
  %7 = call i32 (i8*, ...) @__isoc99_scanf(i8* getelementptr inbounds ([3 x i8], [3 x i8]* @.str, i64 0, i64 0), i32* %2)
  %8 = load i32, i32* %2, align 4
  %9 = srem i32 %8, 10
  store i32 %9, i32* %5, align 4
  %10 = load i32, i32* %2, align 4
  %11 = srem i32 %10, 1000
  %12 = load i32, i32* %2, align 4
  %13 = srem i32 %12, 100
  %14 = sub nsw i32 %11, %13
  %15 = sdiv i32 %14, 100
  store i32 %15, i32* %3, align 4
  %16 = load i32, i32* %2, align 4
  %17 = srem i32 %16, 100
  %18 = load i32, i32* %5, align 4
  %19 = sub nsw i32 %17, %18
  %20 = sdiv i32 %19, 10
  store i32 %20, i32* %4, align 4
  %21 = load i32, i32* %2, align 4
  %22 = srem i32 %21, 10000
  %23 = load i32, i32* %2, align 4
  %24 = srem i32 %23, 1000
  %25 = sub nsw i32 %22, %24
  %26 = sdiv i32 %25, 1000
  store i32 %26, i32* %6, align 4
  %27 = load i32, i32* %2, align 4
  %28 = icmp sge i32 %27, 1000
  br i1 %28, label %29, label %35

29:                                               ; preds = %0
  %30 = load i32, i32* %5, align 4
  %31 = load i32, i32* %4, align 4
  %32 = load i32, i32* %3, align 4
  %33 = load i32, i32* %6, align 4
  %34 = call i32 (i8*, ...) @printf(i8* getelementptr inbounds ([10 x i8], [10 x i8]* @.str.1, i64 0, i64 0), i32 %30, i32 %31, i32 %32, i32 %33)
  br label %55

35:                                               ; preds = %0
  %36 = load i32, i32* %2, align 4
  %37 = icmp sge i32 %36, 100
  br i1 %37, label %38, label %43

38:                                               ; preds = %35
  %39 = load i32, i32* %5, align 4
  %40 = load i32, i32* %4, align 4
  %41 = load i32, i32* %3, align 4
  %42 = call i32 (i8*, ...) @printf(i8* getelementptr inbounds ([8 x i8], [8 x i8]* @.str.2, i64 0, i64 0), i32 %39, i32 %40, i32 %41)
  br label %54

43:                                               ; preds = %35
  %44 = load i32, i32* %2, align 4
  %45 = icmp sge i32 %44, 10
  br i1 %45, label %46, label %50

46:                                               ; preds = %43
  %47 = load i32, i32* %5, align 4
  %48 = load i32, i32* %4, align 4
  %49 = call i32 (i8*, ...) @printf(i8* getelementptr inbounds ([6 x i8], [6 x i8]* @.str.3, i64 0, i64 0), i32 %47, i32 %48)
  br label %53

50:                                               ; preds = %43
  %51 = load i32, i32* %5, align 4
  %52 = call i32 (i8*, ...) @printf(i8* getelementptr inbounds ([4 x i8], [4 x i8]* @.str.4, i64 0, i64 0), i32 %51)
  br label %53

53:                                               ; preds = %50, %46
  br label %54

54:                                               ; preds = %53, %38
  br label %55

55:                                               ; preds = %54, %29
  ret i32 0
}

declare dso_local i32 @__isoc99_scanf(i8*, ...) #1

declare dso_local i32 @printf(i8*, ...) #1


!llvm.module.flags = !{!0}
!llvm.ident = !{!1}

!0 = !{i32 1, !"wchar_size", i32 4}
!1 = !{!"clang version 10.0.0-4ubuntu1 "}
